target datalayout = "e-m:e-p270:32:32-p271:32:32-p272:64:64-i64:64-i128:128-f80:128-n8:16:32:64-S128"
target triple = "x86_64-unknown-linux-gnu"

%struct.BinaryProperty = type { i32, i32, ptr }

; Function Attrs: mustprogress uwtable
define signext i8 @u_hasBinaryProperty_75(i32 noundef %c, i32 noundef %which) #0 {
entry:
  %retval = alloca i8, align 1
  %c.addr = alloca i32, align 4
  %which.addr = alloca i32, align 4
  %prop = alloca ptr, align 8
  store i32 %c, ptr %c.addr, align 4
  store i32 %which, ptr %which.addr, align 4
  %0 = load i32, ptr %which.addr, align 4
  %cmp = icmp slt i32 %0, 0
  br i1 %cmp, label %if.then, label %lor.lhs.false

lor.lhs.false:                                    ; preds = %entry
  %1 = load i32, ptr %which.addr, align 4
  %cmp1 = icmp sle i32 75, %1
  br i1 %cmp1, label %if.then, label %if.else

if.then:                                          ; preds = %lor.lhs.false, %entry
  store i8 0, ptr %retval, align 1
  br label %return

if.else:                                          ; preds = %lor.lhs.false
  %2 = load i32, ptr %which.addr, align 4
  %idxprom = sext i32 %2 to i64
  %arrayidx = getelementptr inbounds [75 x %struct.BinaryProperty], ptr @_ZL8binProps, i64 0, i64 %idxprom
  store ptr %arrayidx, ptr %prop, align 8
  %3 = load ptr, ptr %prop, align 8
  %contains = getelementptr inbounds %struct.BinaryProperty, ptr %3, i32 0, i32 2
  %4 = load ptr, ptr %contains, align 8
  %5 = load ptr, ptr %prop, align 8
  %6 = load i32, ptr %c.addr, align 4
  %7 = load i32, ptr %which.addr, align 4
  %call = call noundef signext i8 %4(ptr noundef nonnull align 8 dereferenceable(16) %5, i32 noundef %6, i32 noundef %7)
  store i8 %call, ptr %retval, align 1
  br label %return

return:                                           ; preds = %if.else, %if.then
  %8 = load i8, ptr %retval, align 1
  ret i8 %8
}

; Function Attrs: mustprogress uwtable
define signext i8 @u_stringHasBinaryProperty_75(ptr noundef %s, i32 noundef %length, i32 noundef %which) #0 {
entry:
  %retval = alloca i8, align 1
  %s.addr = alloca ptr, align 8
  %length.addr = alloca i32, align 4
  %which.addr = alloca i32, align 4
  %i = alloca i32, align 4
  %c = alloca i32, align 4
  %__c2 = alloca i16, align 2
  store ptr %s, ptr %s.addr, align 8
  store i32 %length, ptr %length.addr, align 4
  store i32 %which, ptr %which.addr, align 4
  %0 = load ptr, ptr %s.addr, align 8
  %cmp = icmp eq ptr %0, null
  br i1 %cmp, label %land.lhs.true, label %if.end

land.lhs.true:                                    ; preds = %entry
  %1 = load i32, ptr %length.addr, align 4
  %cmp1 = icmp ne i32 %1, 0
  br i1 %cmp1, label %if.then, label %if.end

if.then:                                          ; preds = %land.lhs.true
  store i8 0, ptr %retval, align 1
  br label %return

if.end:                                           ; preds = %land.lhs.true, %entry
  %2 = load i32, ptr %length.addr, align 4
  %cmp2 = icmp eq i32 %2, 1
  br i1 %cmp2, label %if.then3, label %if.else

if.then3:                                         ; preds = %if.end
  %3 = load ptr, ptr %s.addr, align 8
  %arrayidx = getelementptr inbounds i16, ptr %3, i64 0
  %4 = load i16, ptr %arrayidx, align 2
  %conv = zext i16 %4 to i32
  %5 = load i32, ptr %which.addr, align 4
  %call = call signext i8 @u_hasBinaryProperty_75(i32 noundef %conv, i32 noundef %5)
  store i8 %call, ptr %retval, align 1
  br label %return

if.else:                                          ; preds = %if.end
  %6 = load i32, ptr %length.addr, align 4
  %cmp4 = icmp eq i32 %6, 2
  br i1 %cmp4, label %if.then9, label %lor.lhs.false

lor.lhs.false:                                    ; preds = %if.else
  %7 = load i32, ptr %length.addr, align 4
  %cmp5 = icmp slt i32 %7, 0
  br i1 %cmp5, label %land.lhs.true6, label %if.end35

land.lhs.true6:                                   ; preds = %lor.lhs.false
  %8 = load ptr, ptr %s.addr, align 8
  %9 = load i16, ptr %8, align 2
  %conv7 = zext i16 %9 to i32
  %cmp8 = icmp ne i32 %conv7, 0
  br i1 %cmp8, label %if.then9, label %if.end35

if.then9:                                         ; preds = %land.lhs.true6, %if.else
  store i32 0, ptr %i, align 4
  br label %do.body

do.body:                                          ; preds = %if.then9
  %10 = load ptr, ptr %s.addr, align 8
  %11 = load i32, ptr %i, align 4
  %inc = add nsw i32 %11, 1
  store i32 %inc, ptr %i, align 4
  %idxprom = sext i32 %11 to i64
  %arrayidx10 = getelementptr inbounds i16, ptr %10, i64 %idxprom
  %12 = load i16, ptr %arrayidx10, align 2
  %conv11 = zext i16 %12 to i32
  store i32 %conv11, ptr %c, align 4
  %13 = load i32, ptr %c, align 4
  %and = and i32 %13, -1024
  %cmp12 = icmp eq i32 %and, 55296
  br i1 %cmp12, label %if.then13, label %if.end25

if.then13:                                        ; preds = %do.body
  %14 = load i32, ptr %i, align 4
  %15 = load i32, ptr %length.addr, align 4
  %cmp14 = icmp ne i32 %14, %15
  br i1 %cmp14, label %land.lhs.true15, label %if.end24

land.lhs.true15:                                  ; preds = %if.then13
  %16 = load ptr, ptr %s.addr, align 8
  %17 = load i32, ptr %i, align 4
  %idxprom16 = sext i32 %17 to i64
  %arrayidx17 = getelementptr inbounds i16, ptr %16, i64 %idxprom16
  %18 = load i16, ptr %arrayidx17, align 2
  store i16 %18, ptr %__c2, align 2
  %conv18 = zext i16 %18 to i32
  %and19 = and i32 %conv18, -1024
  %cmp20 = icmp eq i32 %and19, 56320
  br i1 %cmp20, label %if.then21, label %if.end24

if.then21:                                        ; preds = %land.lhs.true15
  %19 = load i32, ptr %i, align 4
  %inc22 = add nsw i32 %19, 1
  store i32 %inc22, ptr %i, align 4
  %20 = load i32, ptr %c, align 4
  %shl = shl i32 %20, 10
  %21 = load i16, ptr %__c2, align 2
  %conv23 = zext i16 %21 to i32
  %add = add nsw i32 %shl, %conv23
  %sub = sub nsw i32 %add, 56613888
  store i32 %sub, ptr %c, align 4
  br label %if.end24

if.end24:                                         ; preds = %if.then21, %land.lhs.true15, %if.then13
  br label %if.end25

if.end25:                                         ; preds = %if.end24, %do.body
  br label %do.end

do.end:                                           ; preds = %if.end25
  %22 = load i32, ptr %length.addr, align 4
  %cmp26 = icmp sgt i32 %22, 0
  br i1 %cmp26, label %cond.true, label %cond.false

cond.true:                                        ; preds = %do.end
  %23 = load i32, ptr %i, align 4
  %24 = load i32, ptr %length.addr, align 4
  %cmp27 = icmp eq i32 %23, %24
  br i1 %cmp27, label %if.then32, label %if.end34

cond.false:                                       ; preds = %do.end
  %25 = load ptr, ptr %s.addr, align 8
  %26 = load i32, ptr %i, align 4
  %idxprom28 = sext i32 %26 to i64
  %arrayidx29 = getelementptr inbounds i16, ptr %25, i64 %idxprom28
  %27 = load i16, ptr %arrayidx29, align 2
  %conv30 = zext i16 %27 to i32
  %cmp31 = icmp eq i32 %conv30, 0
  br i1 %cmp31, label %if.then32, label %if.end34

if.then32:                                        ; preds = %cond.false, %cond.true
  %28 = load i32, ptr %c, align 4
  %29 = load i32, ptr %which.addr, align 4
  %call33 = call signext i8 @u_hasBinaryProperty_75(i32 noundef %28, i32 noundef %29)
  store i8 %call33, ptr %retval, align 1
  br label %return

if.end34:                                         ; preds = %cond.false, %cond.true
  br label %if.end35

if.end35:                                         ; preds = %if.end34, %land.lhs.true6, %lor.lhs.false
  br label %if.end36

if.end36:                                         ; preds = %if.end35
  %30 = load i32, ptr %which.addr, align 4
  %cmp37 = icmp sle i32 65, %30
  br i1 %cmp37, label %land.lhs.true38, label %land.end

land.lhs.true38:                                  ; preds = %if.end36
  %31 = load i32, ptr %which.addr, align 4
  %cmp39 = icmp sle i32 %31, 71
  br i1 %cmp39, label %land.rhs, label %land.end

land.rhs:                                         ; preds = %land.lhs.true38
  %32 = load ptr, ptr %s.addr, align 8
  %33 = load i32, ptr %length.addr, align 4
  %34 = load i32, ptr %which.addr, align 4
  %call40 = call noundef signext i8 @_ZN6icu_7510EmojiProps17hasBinaryPropertyEPKDsi9UProperty(ptr noundef %32, i32 noundef %33, i32 noundef %34)
  %tobool = icmp ne i8 %call40, 0
  br label %land.end

land.end:                                         ; preds = %land.rhs, %land.lhs.true38, %if.end36
  %35 = phi i1 [ false, %land.lhs.true38 ], [ false, %if.end36 ], [ %tobool, %land.rhs ]
  %conv41 = zext i1 %35 to i8
  store i8 %conv41, ptr %retval, align 1
  br label %return

return:                                           ; preds = %land.end, %if.then32, %if.then3, %if.then
  %36 = load i8, ptr %retval, align 1
  ret i8 %36
}