; Function Attrs: mustprogress uwtable
define noundef signext i8 @u_stringHasBinaryProperty_75(ptr noundef %s, i32 noundef %length, i32 noundef %which) local_unnamed_addr #0 {
entry:
  %cmp = icmp eq ptr %s, null
  %cmp1 = icmp ne i32 %length, 0
  %or.cond = and i1 %cmp, %cmp1
  br i1 %or.cond, label %return, label %if.end

if.end:                                           ; preds = %entry
  switch i32 %length, label %lor.lhs.false [
    i32 1, label %if.then3
    i32 2, label %if.end.if.then9_crit_edge
  ]

if.end.if.then9_crit_edge:                        ; preds = %if.end
  %.pre = load i16, ptr %s, align 2
  br label %if.then9

if.then3:                                         ; preds = %if.end
  %or.cond.i = icmp ugt i32 %which, 74
  br i1 %or.cond.i, label %return, label %if.else.i

if.else.i:                                        ; preds = %if.then3
  %0 = load i16, ptr %s, align 2
  %conv = zext i16 %0 to i32
  %idxprom.i = zext nneg i32 %which to i64
  %arrayidx.i = getelementptr inbounds [75 x %struct.BinaryProperty], ptr @_ZL8binProps, i64 0, i64 %idxprom.i
  %contains.i = getelementptr inbounds i8, ptr %arrayidx.i, i64 8
  %1 = load ptr, ptr %contains.i, align 8
  %call.i = tail call noundef signext i8 %1(ptr noundef nonnull align 8 dereferenceable(16) %arrayidx.i, i32 noundef %conv, i32 noundef %which)
  br label %return

lor.lhs.false:                                    ; preds = %if.end
  %cmp5 = icmp slt i32 %length, 0
  br i1 %cmp5, label %land.lhs.true6, label %if.end36

land.lhs.true6:                                   ; preds = %lor.lhs.false
  %2 = load i16, ptr %s, align 2
  %cmp8.not = icmp eq i16 %2, 0
  br i1 %cmp8.not, label %if.end36, label %if.then9

if.then9:                                         ; preds = %if.end.if.then9_crit_edge, %land.lhs.true6
  %3 = phi i16 [ %.pre, %if.end.if.then9_crit_edge ], [ %2, %land.lhs.true6 ]
  %conv11 = zext i16 %3 to i32
  %and = and i32 %conv11, 64512
  %cmp12 = icmp eq i32 %and, 55296
  br i1 %cmp12, label %land.lhs.true15, label %do.end

land.lhs.true15:                                  ; preds = %if.then9
  %arrayidx17 = getelementptr inbounds i8, ptr %s, i64 2
  %4 = load i16, ptr %arrayidx17, align 2
  %conv18 = zext i16 %4 to i32
  %and19 = and i32 %conv18, 64512
  %cmp20 = icmp eq i32 %and19, 56320
  br i1 %cmp20, label %if.then21, label %do.end

if.then21:                                        ; preds = %land.lhs.true15
  %shl = shl nuw nsw i32 %conv11, 10
  %add = add nsw i32 %shl, -56613888
  %sub = add nuw nsw i32 %add, %conv18
  br label %do.end

do.end:                                           ; preds = %if.then9, %if.then21, %land.lhs.true15
  %i.0 = phi i32 [ 2, %if.then21 ], [ 1, %land.lhs.true15 ], [ 1, %if.then9 ]
  %c.0 = phi i32 [ %sub, %if.then21 ], [ %conv11, %land.lhs.true15 ], [ %conv11, %if.then9 ]
  %cmp26 = icmp sgt i32 %length, 0
  br i1 %cmp26, label %cond.true, label %cond.false

cond.true:                                        ; preds = %do.end
  %cmp27 = icmp eq i32 %i.0, %length
  br i1 %cmp27, label %if.then32, label %if.end36

cond.false:                                       ; preds = %do.end
  %idxprom28 = zext nneg i32 %i.0 to i64
  %arrayidx29 = getelementptr inbounds i16, ptr %s, i64 %idxprom28
  %5 = load i16, ptr %arrayidx29, align 2
  %cmp31 = icmp eq i16 %5, 0
  br i1 %cmp31, label %if.then32, label %if.end36

if.then32:                                        ; preds = %cond.false, %cond.true
  %or.cond.i26 = icmp ugt i32 %which, 74
  br i1 %or.cond.i26, label %return, label %if.else.i27

if.else.i27:                                      ; preds = %if.then32
  %idxprom.i28 = zext nneg i32 %which to i64
  %arrayidx.i29 = getelementptr inbounds [75 x %struct.BinaryProperty], ptr @_ZL8binProps, i64 0, i64 %idxprom.i28
  %contains.i30 = getelementptr inbounds i8, ptr %arrayidx.i29, i64 8
  %6 = load ptr, ptr %contains.i30, align 8
  %call.i31 = tail call noundef signext i8 %6(ptr noundef nonnull align 8 dereferenceable(16) %arrayidx.i29, i32 noundef %c.0, i32 noundef %which)
  br label %return

if.end36:                                         ; preds = %lor.lhs.false, %land.lhs.true6, %cond.false, %cond.true
  %7 = add i32 %which, -65
  %or.cond1 = icmp ult i32 %7, 7
  br i1 %or.cond1, label %land.rhs, label %return

land.rhs:                                         ; preds = %if.end36
  %call40 = tail call noundef signext i8 @_ZN6icu_7510EmojiProps17hasBinaryPropertyEPKDsi9UProperty(ptr noundef %s, i32 noundef %length, i32 noundef %which)
  %tobool = icmp ne i8 %call40, 0
  %8 = zext i1 %tobool to i8
  br label %return

return:                                           ; preds = %if.else.i27, %if.then32, %if.else.i, %if.then3, %if.end36, %land.rhs, %entry
  %retval.0 = phi i8 [ 0, %entry ], [ 0, %if.end36 ], [ %8, %land.rhs ], [ %call.i, %if.else.i ], [ 0, %if.then3 ], [ %call.i31, %if.else.i27 ], [ 0, %if.then32 ]
  ret i8 %retval.0
}